; Function Attrs: mustprogress uwtable
define dso_local void @_ZNK4Json9OurReader24getLocationLineAndColumnB5cxx11EPKc(ptr dead_on_unwind noalias writable sret(%"class.std::__cxx11::basic_string") align 8 %0, ptr nocapture noundef nonnull readonly align 8 dereferenceable(297) %1, ptr noundef %2) local_unnamed_addr #6 align 2 personality ptr @__gxx_personality_v0 {
  %4 = alloca [51 x i8], align 16
  %5 = alloca %"class.std::allocator.6", align 1
  %6 = getelementptr inbounds i8, ptr %1, i64 192
  %7 = load ptr, ptr %6, align 8
  %8 = getelementptr inbounds i8, ptr %1, i64 200
  %9 = icmp uge ptr %7, %2
  %10 = load ptr, ptr %8, align 8
  %.not22.i = icmp eq ptr %7, %10
  %or.cond23.i = select i1 %9, i1 true, i1 %.not22.i
  br i1 %or.cond23.i, label %_ZNK4Json9OurReader24getLocationLineAndColumnEPKcRiS3_.exit, label %.lr.ph.i

.lr.ph.i:                                         ; preds = %3, %19
  %.0 = phi i32 [ %.1, %19 ], [ 0, %3 ]
  %11 = phi i32 [ %20, %19 ], [ 0, %3 ]
  %.025.i = phi ptr [ %.2.i, %19 ], [ %7, %3 ]
  %.01824.i = phi ptr [ %.119.i, %19 ], [ %7, %3 ]
  %12 = getelementptr inbounds i8, ptr %.025.i, i64 1
  %13 = load i8, ptr %.025.i, align 1
  switch i8 %13, label %19 [
    i8 13, label %14
    i8 10, label %.sink.split.i
  ]

14:                                               ; preds = %.lr.ph.i
  %15 = load i8, ptr %12, align 1
  %16 = icmp eq i8 %15, 10
  %17 = getelementptr inbounds i8, ptr %.025.i, i64 2
  %spec.select.i = select i1 %16, ptr %17, ptr %12
  br label %.sink.split.i

.sink.split.i:                                    ; preds = %14, %.lr.ph.i
  %.119.ph.i = phi ptr [ %spec.select.i, %14 ], [ %12, %.lr.ph.i ]
  %18 = add nsw i32 %11, 1
  br label %19

19:                                               ; preds = %.sink.split.i, %.lr.ph.i
  %.1 = phi i32 [ %.0, %.lr.ph.i ], [ %18, %.sink.split.i ]
  %20 = phi i32 [ %11, %.lr.ph.i ], [ %18, %.sink.split.i ]
  %.119.i = phi ptr [ %.01824.i, %.lr.ph.i ], [ %.119.ph.i, %.sink.split.i ]
  %.2.i = phi ptr [ %12, %.lr.ph.i ], [ %.119.ph.i, %.sink.split.i ]
  %21 = icmp uge ptr %.2.i, %2
  %.not.i = icmp eq ptr %.2.i, %10
  %or.cond.i = select i1 %21, i1 true, i1 %.not.i
  br i1 %or.cond.i, label %_ZNK4Json9OurReader24getLocationLineAndColumnEPKcRiS3_.exit.loopexit, label %.lr.ph.i, !llvm.loop !326

_ZNK4Json9OurReader24getLocationLineAndColumnEPKcRiS3_.exit.loopexit: ; preds = %19
  %22 = add nsw i32 %.1, 1
  br label %_ZNK4Json9OurReader24getLocationLineAndColumnEPKcRiS3_.exit

_ZNK4Json9OurReader24getLocationLineAndColumnEPKcRiS3_.exit: ; preds = %_ZNK4Json9OurReader24getLocationLineAndColumnEPKcRiS3_.exit.loopexit, %3
  %.2 = phi i32 [ 1, %3 ], [ %22, %_ZNK4Json9OurReader24getLocationLineAndColumnEPKcRiS3_.exit.loopexit ]
  %.018.lcssa.i = phi ptr [ %7, %3 ], [ %.119.i, %_ZNK4Json9OurReader24getLocationLineAndColumnEPKcRiS3_.exit.loopexit ]
  %23 = ptrtoint ptr %2 to i64
  %24 = ptrtoint ptr %.018.lcssa.i to i64
  %25 = sub i64 %23, %24
  %26 = trunc i64 %25 to i32
  %27 = add nsw i32 %26, 1
  %28 = call i32 (ptr, i64, ptr, ...) @snprintf(ptr noundef nonnull dereferenceable(1) %4, i64 noundef 51, ptr noundef nonnull @.str.18, i32 noundef %.2, i32 noundef %27) #25
  call void @_ZNSaIcEC1Ev(ptr noundef nonnull align 1 dereferenceable(1) %5) #25
  %29 = invoke noundef ptr @_ZNSt7__cxx1112basic_stringIcSt11char_traitsIcESaIcEE13_M_local_dataEv(ptr noundef nonnull align 8 dereferenceable(32) %0)
          to label %.noexc unwind label %34

.noexc:                                           ; preds = %_ZNK4Json9OurReader24getLocationLineAndColumnEPKcRiS3_.exit
  invoke void @_ZNSt7__cxx1112basic_stringIcSt11char_traitsIcESaIcEE12_Alloc_hiderC1EPcRKS3_(ptr noundef nonnull align 8 dereferenceable(8) %0, ptr noundef %29, ptr noundef nonnull align 1 dereferenceable(1) %5)
          to label %.noexc3 unwind label %34

.noexc3:                                          ; preds = %.noexc
  %30 = call noundef i64 @strlen(ptr noundef nonnull dereferenceable(1) %4) #25
  %31 = getelementptr inbounds i8, ptr %4, i64 %30
  invoke void @_ZNSt7__cxx1112basic_stringIcSt11char_traitsIcESaIcEE12_M_constructIPKcEEvT_S8_St20forward_iterator_tag(ptr noundef nonnull align 8 dereferenceable(32) %0, ptr noundef nonnull %4, ptr noundef nonnull %31)
          to label %_ZNSt7__cxx1112basic_stringIcSt11char_traitsIcESaIcEEC2IS3_EEPKcRKS3_.exit unwind label %32

32:                                               ; preds = %.noexc3
  %33 = landingpad { ptr, i32 }
          cleanup
  call void @_ZNSaIcED2Ev(ptr noundef nonnull align 1 dereferenceable(1) %0) #25
  br label %.body

_ZNSt7__cxx1112basic_stringIcSt11char_traitsIcESaIcEEC2IS3_EEPKcRKS3_.exit: ; preds = %.noexc3
  call void @_ZNSaIcED1Ev(ptr noundef nonnull align 1 dereferenceable(1) %5) #25
  ret void

34:                                               ; preds = %.noexc, %_ZNK4Json9OurReader24getLocationLineAndColumnEPKcRiS3_.exit
  %35 = landingpad { ptr, i32 }
          cleanup
  br label %.body

.body:                                            ; preds = %32, %34
  %eh.lpad-body = phi { ptr, i32 } [ %35, %34 ], [ %33, %32 ]
  call void @_ZNSaIcED1Ev(ptr noundef nonnull align 1 dereferenceable(1) %5) #25
  resume { ptr, i32 } %eh.lpad-body
}